target datalayout = "e-m:e-p270:32:32-p271:32:32-p272:64:64-i64:64-i128:128-f80:128-n8:16:32:64-S128"
target triple = "x86_64-pc-linux-gnu"

%struct.FunctionCallInfoBaseData = type { ptr, ptr, ptr, i32, i8, i16, [0 x %struct.NullableDatum] }
%struct.NullableDatum = type { i64, i8 }

@.str.1 = private unnamed_addr constant [12 x i8] c"xlogfuncs.c\00", align 1
@.str.20 = private unnamed_addr constant [28 x i8] c"recovery is not in progress\00", align 1
@.str.21 = private unnamed_addr constant [65 x i8] c"Recovery control functions can only be executed during recovery.\00", align 1
@__func__.pg_promote = private unnamed_addr constant [11 x i8] c"pg_promote\00", align 1
@.str.29 = private unnamed_addr constant [44 x i8] c"\22wait_seconds\22 must not be negative or zero\00", align 1
@.str.30 = private unnamed_addr constant [8 x i8] c"promote\00", align 1
@.str.31 = private unnamed_addr constant [2 x i8] c"w\00", align 1
@.str.32 = private unnamed_addr constant [31 x i8] c"could not create file \22%s\22: %m\00", align 1
@.str.33 = private unnamed_addr constant [30 x i8] c"could not write file \22%s\22: %m\00", align 1
@PostmasterPid = external global i32, align 4
@.str.34 = private unnamed_addr constant [40 x i8] c"failed to send signal to postmaster: %m\00", align 1
@MyLatch = external global ptr, align 8
@InterruptPending = external global i32, align 4
@.str.35 = private unnamed_addr constant [57 x i8] c"terminating connection due to unexpected postmaster exit\00", align 1
@.str.36 = private unnamed_addr constant [27 x i8] c"while waiting on promotion\00", align 1
@.str.37 = private unnamed_addr constant [40 x i8] c"server did not promote within %d second\00", align 1
@.str.38 = private unnamed_addr constant [41 x i8] c"server did not promote within %d seconds\00", align 1

; Function Attrs: inlinehint nounwind uwtable
define internal i64 @BoolGetDatum(i1 noundef zeroext %0) #3 {
  %2 = alloca i8, align 1
  %3 = zext i1 %0 to i8
  store i8 %3, ptr %2, align 1
  %4 = load i8, ptr %2, align 1, !range !4, !noundef !5
  %5 = trunc i8 %4 to i1
  %6 = select i1 %5, i32 1, i32 0
  %7 = sext i32 %6 to i64
  ret i64 %7
}

; Function Attrs: inlinehint nounwind uwtable
define internal i32 @DatumGetInt32(i64 noundef %0) #3 {
  %2 = alloca i64, align 8
  store i64 %0, ptr %2, align 8
  %3 = load i64, ptr %2, align 8
  %4 = trunc i64 %3 to i32
  ret i32 %4
}

; Function Attrs: inlinehint nounwind uwtable
define internal zeroext i1 @DatumGetBool(i64 noundef %0) #3 {
  %2 = alloca i64, align 8
  store i64 %0, ptr %2, align 8
  %3 = load i64, ptr %2, align 8
  %4 = icmp ne i64 %3, 0
  ret i1 %4
}

; Function Attrs: nounwind uwtable
define dso_local i64 @pg_promote(ptr noundef %0) #0 {
  %2 = alloca i64, align 8
  %3 = alloca ptr, align 8
  %4 = alloca i8, align 1
  %5 = alloca i32, align 4
  %6 = alloca ptr, align 8
  %7 = alloca i32, align 4
  %8 = alloca i32, align 4
  %9 = alloca i32, align 4
  store ptr %0, ptr %3, align 8
  call void @llvm.lifetime.start.p0(i64 1, ptr %4) #9
  %10 = load ptr, ptr %3, align 8
  %11 = getelementptr inbounds nuw %struct.FunctionCallInfoBaseData, ptr %10, i32 0, i32 6
  %12 = getelementptr inbounds [0 x %struct.NullableDatum], ptr %11, i64 0, i64 0
  %13 = getelementptr inbounds nuw %struct.NullableDatum, ptr %12, i32 0, i32 0
  %14 = load i64, ptr %13, align 8
  %15 = call zeroext i1 @DatumGetBool(i64 noundef %14)
  %16 = zext i1 %15 to i8
  store i8 %16, ptr %4, align 1
  call void @llvm.lifetime.start.p0(i64 4, ptr %5) #9
  %17 = load ptr, ptr %3, align 8
  %18 = getelementptr inbounds nuw %struct.FunctionCallInfoBaseData, ptr %17, i32 0, i32 6
  %19 = getelementptr inbounds [0 x %struct.NullableDatum], ptr %18, i64 0, i64 1
  %20 = getelementptr inbounds nuw %struct.NullableDatum, ptr %19, i32 0, i32 0
  %21 = load i64, ptr %20, align 8
  %22 = call i32 @DatumGetInt32(i64 noundef %21)
  store i32 %22, ptr %5, align 4
  call void @llvm.lifetime.start.p0(i64 8, ptr %6) #9
  call void @llvm.lifetime.start.p0(i64 4, ptr %7) #9
  %23 = call zeroext i1 @RecoveryInProgress()
  br i1 %23, label %37, label %24

24:                                               ; preds = %1
  br label %25

25:                                               ; preds = %24
  br i1 true, label %26, label %28

26:                                               ; preds = %25
  %27 = call zeroext i1 @errstart_cold(i32 noundef 21, ptr noundef null) #10
  br i1 %27, label %30, label %34

28:                                               ; preds = %25
  %29 = call zeroext i1 @errstart(i32 noundef 21, ptr noundef null)
  br i1 %29, label %30, label %34

30:                                               ; preds = %28, %26
  %31 = call i32 @errcode(i32 noundef 325)
  %32 = call i32 (ptr, ...) @errmsg(ptr noundef @.str.20)
  %33 = call i32 (ptr, ...) @errhint(ptr noundef @.str.21)
  call void @errfinish(ptr noundef @.str.1, i32 noundef 681, ptr noundef @__func__.pg_promote)
  br label %34

34:                                               ; preds = %30, %28, %26
  unreachable

35:                                               ; No predecessors!
  br label %36

36:                                               ; preds = %35
  br label %37

37:                                               ; preds = %36, %1
  %38 = load i32, ptr %5, align 4
  %39 = icmp sle i32 %38, 0
  br i1 %39, label %40, label %52

40:                                               ; preds = %37
  br label %41

41:                                               ; preds = %40
  br i1 true, label %42, label %44

42:                                               ; preds = %41
  %43 = call zeroext i1 @errstart_cold(i32 noundef 21, ptr noundef null) #10
  br i1 %43, label %46, label %49

44:                                               ; preds = %41
  %45 = call zeroext i1 @errstart(i32 noundef 21, ptr noundef null)
  br i1 %45, label %46, label %49

46:                                               ; preds = %44, %42
  %47 = call i32 @errcode(i32 noundef 50331778)
  %48 = call i32 (ptr, ...) @errmsg(ptr noundef @.str.29)
  call void @errfinish(ptr noundef @.str.1, i32 noundef 686, ptr noundef @__func__.pg_promote)
  br label %49

49:                                               ; preds = %46, %44, %42
  unreachable

50:                                               ; No predecessors!
  br label %51

51:                                               ; preds = %50
  br label %52

52:                                               ; preds = %51, %37
  %53 = call ptr @AllocateFile(ptr noundef @.str.30, ptr noundef @.str.31)
  store ptr %53, ptr %6, align 8
  %54 = load ptr, ptr %6, align 8
  %55 = icmp ne ptr %54, null
  br i1 %55, label %68, label %56

56:                                               ; preds = %52
  br label %57

57:                                               ; preds = %56
  br i1 true, label %58, label %60

58:                                               ; preds = %57
  %59 = call zeroext i1 @errstart_cold(i32 noundef 21, ptr noundef null) #10
  br i1 %59, label %62, label %65

60:                                               ; preds = %57
  %61 = call zeroext i1 @errstart(i32 noundef 21, ptr noundef null)
  br i1 %61, label %62, label %65

62:                                               ; preds = %60, %58
  %63 = call i32 @errcode_for_file_access()
  %64 = call i32 (ptr, ...) @errmsg(ptr noundef @.str.32, ptr noundef @.str.30)
  call void @errfinish(ptr noundef @.str.1, i32 noundef 694, ptr noundef @__func__.pg_promote)
  br label %65

65:                                               ; preds = %62, %60, %58
  unreachable

66:                                               ; No predecessors!
  br label %67

67:                                               ; preds = %66
  br label %68

68:                                               ; preds = %67, %52
  %69 = load ptr, ptr %6, align 8
  %70 = call i32 @FreeFile(ptr noundef %69)
  %71 = icmp ne i32 %70, 0
  br i1 %71, label %72, label %84

72:                                               ; preds = %68
  br label %73

73:                                               ; preds = %72
  br i1 true, label %74, label %76

74:                                               ; preds = %73
  %75 = call zeroext i1 @errstart_cold(i32 noundef 21, ptr noundef null) #10
  br i1 %75, label %78, label %81

76:                                               ; preds = %73
  %77 = call zeroext i1 @errstart(i32 noundef 21, ptr noundef null)
  br i1 %77, label %78, label %81

78:                                               ; preds = %76, %74
  %79 = call i32 @errcode_for_file_access()
  %80 = call i32 (ptr, ...) @errmsg(ptr noundef @.str.33, ptr noundef @.str.30)
  call void @errfinish(ptr noundef @.str.1, i32 noundef 700, ptr noundef @__func__.pg_promote)
  br label %81

81:                                               ; preds = %78, %76, %74
  unreachable

82:                                               ; No predecessors!
  br label %83

83:                                               ; preds = %82
  br label %84

84:                                               ; preds = %83, %68
  %85 = load i32, ptr @PostmasterPid, align 4
  %86 = call i32 @kill(i32 noundef %85, i32 noundef 10) #9
  %87 = icmp ne i32 %86, 0
  br i1 %87, label %88, label %101

88:                                               ; preds = %84
  %89 = call i32 @unlink(ptr noundef @.str.30) #9
  br label %90

90:                                               ; preds = %88
  br i1 true, label %91, label %93

91:                                               ; preds = %90
  %92 = call zeroext i1 @errstart_cold(i32 noundef 21, ptr noundef null) #10
  br i1 %92, label %95, label %98

93:                                               ; preds = %90
  %94 = call zeroext i1 @errstart(i32 noundef 21, ptr noundef null)
  br i1 %94, label %95, label %98

95:                                               ; preds = %93, %91
  %96 = call i32 @errcode(i32 noundef 517)
  %97 = call i32 (ptr, ...) @errmsg(ptr noundef @.str.34)
  call void @errfinish(ptr noundef @.str.1, i32 noundef 708, ptr noundef @__func__.pg_promote)
  br label %98

98:                                               ; preds = %95, %93, %91
  unreachable

99:                                               ; No predecessors!
  br label %100

100:                                              ; preds = %99
  br label %101

101:                                              ; preds = %100, %84
  %102 = load i8, ptr %4, align 1, !range !4, !noundef !5
  %103 = trunc i8 %102 to i1
  br i1 %103, label %106, label %104

104:                                              ; preds = %101
  %105 = call i64 @BoolGetDatum(i1 noundef zeroext true)
  store i64 %105, ptr %2, align 8
  store i32 1, ptr %8, align 4
  br label %170

106:                                              ; preds = %101
  store i32 0, ptr %7, align 4
  br label %107

107:                                              ; preds = %152, %106
  %108 = load i32, ptr %7, align 4
  %109 = load i32, ptr %5, align 4
  %110 = mul i32 10, %109
  %111 = icmp slt i32 %108, %110
  br i1 %111, label %112, label %155

112:                                              ; preds = %107
  call void @llvm.lifetime.start.p0(i64 4, ptr %9) #9
  %113 = load ptr, ptr @MyLatch, align 8
  call void @ResetLatch(ptr noundef %113)
  %114 = call zeroext i1 @RecoveryInProgress()
  br i1 %114, label %117, label %115

115:                                              ; preds = %112
  %116 = call i64 @BoolGetDatum(i1 noundef zeroext true)
  store i64 %116, ptr %2, align 8
  store i32 1, ptr %8, align 4
  br label %149

117:                                              ; preds = %112
  br label %118

118:                                              ; preds = %117
  %119 = load volatile i32, ptr @InterruptPending, align 4
  %120 = icmp ne i32 %119, 0
  %121 = zext i1 %120 to i32
  %122 = sext i32 %121 to i64
  %123 = call i64 @llvm.expect.i64(i64 %122, i64 0)
  %124 = icmp ne i64 %123, 0
  br i1 %124, label %125, label %126

125:                                              ; preds = %118
  call void @ProcessInterrupts()
  br label %126

126:                                              ; preds = %125, %118
  br label %127

127:                                              ; preds = %126
  br label %128

128:                                              ; preds = %127
  %129 = load ptr, ptr @MyLatch, align 8
  %130 = call i32 @WaitLatch(ptr noundef %129, i32 noundef 25, i64 noundef 100, i32 noundef 134217771)
  store i32 %130, ptr %9, align 4
  %131 = load i32, ptr %9, align 4
  %132 = and i32 %131, 16
  %133 = icmp ne i32 %132, 0
  br i1 %133, label %134, label %148

134:                                              ; preds = %128
  br label %135

135:                                              ; preds = %134
  br i1 true, label %136, label %138

136:                                              ; preds = %135
  %137 = call zeroext i1 @errstart_cold(i32 noundef 22, ptr noundef null) #10
  br i1 %137, label %140, label %145

138:                                              ; preds = %135
  %139 = call zeroext i1 @errstart(i32 noundef 22, ptr noundef null)
  br i1 %139, label %140, label %145

140:                                              ; preds = %138, %136
  %141 = call i32 @errcode(i32 noundef 16908741)
  %142 = call i32 (ptr, ...) @errmsg(ptr noundef @.str.35)
  %143 = call i32 @set_errcontext_domain(ptr noundef null)
  %144 = call i32 (ptr, ...) @errcontext_msg(ptr noundef @.str.36)
  call void @errfinish(ptr noundef @.str.1, i32 noundef 741, ptr noundef @__func__.pg_promote)
  br label %145

145:                                              ; preds = %140, %138, %136
  unreachable

146:                                              ; No predecessors!
  br label %147

147:                                              ; preds = %146
  br label %148

148:                                              ; preds = %147, %128
  store i32 0, ptr %8, align 4
  br label %149

149:                                              ; preds = %148, %115
  call void @llvm.lifetime.end.p0(i64 4, ptr %9) #9
  %150 = load i32, ptr %8, align 4
  switch i32 %150, label %170 [
    i32 0, label %151
  ]

151:                                              ; preds = %149
  br label %152

152:                                              ; preds = %151
  %153 = load i32, ptr %7, align 4
  %154 = add i32 %153, 1
  store i32 %154, ptr %7, align 4
  br label %107, !llvm.loop !8

155:                                              ; preds = %107
  br label %156

156:                                              ; preds = %155
  br i1 false, label %157, label %159

157:                                              ; preds = %156
  %158 = call zeroext i1 @errstart_cold(i32 noundef 19, ptr noundef null) #10
  br i1 %158, label %161, label %166

159:                                              ; preds = %156
  %160 = call zeroext i1 @errstart(i32 noundef 19, ptr noundef null)
  br i1 %160, label %161, label %166

161:                                              ; preds = %159, %157
  %162 = load i32, ptr %5, align 4
  %163 = sext i32 %162 to i64
  %164 = load i32, ptr %5, align 4
  %165 = call i32 (ptr, ptr, i64, ...) @errmsg_plural(ptr noundef @.str.37, ptr noundef @.str.38, i64 noundef %163, i32 noundef %164)
  call void @errfinish(ptr noundef @.str.1, i32 noundef 748, ptr noundef @__func__.pg_promote)
  br label %166

166:                                              ; preds = %161, %159, %157
  br label %167

167:                                              ; preds = %166
  br label %168

168:                                              ; preds = %167
  %169 = call i64 @BoolGetDatum(i1 noundef zeroext false)
  store i64 %169, ptr %2, align 8
  store i32 1, ptr %8, align 4
  br label %170

170:                                              ; preds = %168, %149, %104
  call void @llvm.lifetime.end.p0(i64 4, ptr %7) #9
  call void @llvm.lifetime.end.p0(i64 8, ptr %6) #9
  call void @llvm.lifetime.end.p0(i64 4, ptr %5) #9
  call void @llvm.lifetime.end.p0(i64 1, ptr %4) #9
  %171 = load i64, ptr %2, align 8
  ret i64 %171
}