; Function Attrs: nounwind uwtable
define dso_local range(i64 0, 2) i64 @pg_promote(ptr noundef readonly captures(none) %0) local_unnamed_addr #0 {
  %2 = getelementptr inbounds nuw i8, ptr %0, i64 32
  %3 = load i64, ptr %2, align 8
  %.not23 = icmp eq i64 %3, 0
  %4 = getelementptr inbounds nuw i8, ptr %0, i64 48
  %5 = load i64, ptr %4, align 8
  %6 = trunc i64 %5 to i32
  %7 = tail call zeroext i1 @RecoveryInProgress() #9
  br i1 %7, label %13, label %8

8:                                                ; preds = %1
  %9 = tail call zeroext i1 @errstart_cold(i32 noundef 21, ptr noundef null) #10
  tail call void @llvm.assume(i1 %9)
  %10 = tail call i32 @errcode(i32 noundef 325) #9
  %11 = tail call i32 (ptr, ...) @errmsg(ptr noundef nonnull @.str.20) #9
  %12 = tail call i32 (ptr, ...) @errhint(ptr noundef nonnull @.str.21) #9
  tail call void @errfinish(ptr noundef nonnull @.str.1, i32 noundef 681, ptr noundef nonnull @__func__.pg_promote) #9
  unreachable

13:                                               ; preds = %1
  %14 = icmp slt i32 %6, 1
  br i1 %14, label %15, label %19

15:                                               ; preds = %13
  %16 = tail call zeroext i1 @errstart_cold(i32 noundef 21, ptr noundef null) #10
  tail call void @llvm.assume(i1 %16)
  %17 = tail call i32 @errcode(i32 noundef 50331778) #9
  %18 = tail call i32 (ptr, ...) @errmsg(ptr noundef nonnull @.str.29) #9
  tail call void @errfinish(ptr noundef nonnull @.str.1, i32 noundef 686, ptr noundef nonnull @__func__.pg_promote) #9
  unreachable

19:                                               ; preds = %13
  %20 = tail call ptr @AllocateFile(ptr noundef nonnull @.str.30, ptr noundef nonnull @.str.31) #9
  %.not = icmp eq ptr %20, null
  br i1 %.not, label %21, label %25

21:                                               ; preds = %19
  %22 = tail call zeroext i1 @errstart_cold(i32 noundef 21, ptr noundef null) #10
  tail call void @llvm.assume(i1 %22)
  %23 = tail call i32 @errcode_for_file_access() #9
  %24 = tail call i32 (ptr, ...) @errmsg(ptr noundef nonnull @.str.32, ptr noundef nonnull @.str.30) #9
  tail call void @errfinish(ptr noundef nonnull @.str.1, i32 noundef 694, ptr noundef nonnull @__func__.pg_promote) #9
  unreachable

25:                                               ; preds = %19
  %26 = tail call i32 @FreeFile(ptr noundef nonnull %20) #9
  %.not17 = icmp eq i32 %26, 0
  br i1 %.not17, label %31, label %27

27:                                               ; preds = %25
  %28 = tail call zeroext i1 @errstart_cold(i32 noundef 21, ptr noundef null) #10
  tail call void @llvm.assume(i1 %28)
  %29 = tail call i32 @errcode_for_file_access() #9
  %30 = tail call i32 (ptr, ...) @errmsg(ptr noundef nonnull @.str.33, ptr noundef nonnull @.str.30) #9
  tail call void @errfinish(ptr noundef nonnull @.str.1, i32 noundef 700, ptr noundef nonnull @__func__.pg_promote) #9
  unreachable

31:                                               ; preds = %25
  %32 = load i32, ptr @PostmasterPid, align 4
  %33 = tail call i32 @kill(i32 noundef %32, i32 noundef 10) #9
  %.not18 = icmp eq i32 %33, 0
  br i1 %.not18, label %39, label %34

34:                                               ; preds = %31
  %35 = tail call i32 @unlink(ptr noundef nonnull @.str.30) #9
  %36 = tail call zeroext i1 @errstart_cold(i32 noundef 21, ptr noundef null) #10
  tail call void @llvm.assume(i1 %36)
  %37 = tail call i32 @errcode(i32 noundef 517) #9
  %38 = tail call i32 (ptr, ...) @errmsg(ptr noundef nonnull @.str.34) #9
  tail call void @errfinish(ptr noundef nonnull @.str.1, i32 noundef 708, ptr noundef nonnull @__func__.pg_promote) #9
  unreachable

39:                                               ; preds = %31
  br i1 %.not23, label %.loopexit, label %.preheader

.preheader:                                       ; preds = %39
  %40 = mul i32 %6, 10
  %41 = icmp sgt i32 %40, 0
  br i1 %41, label %.lr.ph, label %._crit_edge

42:                                               ; preds = %49
  %43 = add nuw nsw i32 %.01424, 1
  %exitcond.not = icmp eq i32 %43, %40
  br i1 %exitcond.not, label %._crit_edge, label %.lr.ph, !llvm.loop !6

.lr.ph:                                           ; preds = %.preheader, %42
  %.01424 = phi i32 [ %43, %42 ], [ 0, %.preheader ]
  %44 = load ptr, ptr @MyLatch, align 8
  tail call void @ResetLatch(ptr noundef %44) #9
  %45 = tail call zeroext i1 @RecoveryInProgress() #9
  br i1 %45, label %46, label %.loopexit

46:                                               ; preds = %.lr.ph
  %47 = load volatile i32, ptr @InterruptPending, align 4
  %.not19 = icmp eq i32 %47, 0
  br i1 %.not19, label %49, label %48, !prof !7

48:                                               ; preds = %46
  tail call void @ProcessInterrupts() #9
  br label %49

49:                                               ; preds = %48, %46
  %50 = load ptr, ptr @MyLatch, align 8
  %51 = tail call i32 @WaitLatch(ptr noundef %50, i32 noundef 25, i64 noundef 100, i32 noundef 134217771) #9
  %52 = and i32 %51, 16
  %.not20 = icmp eq i32 %52, 0
  br i1 %.not20, label %42, label %53

53:                                               ; preds = %49
  %54 = tail call zeroext i1 @errstart_cold(i32 noundef 22, ptr noundef null) #10
  tail call void @llvm.assume(i1 %54)
  %55 = tail call i32 @errcode(i32 noundef 16908741) #9
  %56 = tail call i32 (ptr, ...) @errmsg(ptr noundef nonnull @.str.35) #9
  %57 = tail call i32 @set_errcontext_domain(ptr noundef null) #9
  %58 = tail call i32 (ptr, ...) @errcontext_msg(ptr noundef nonnull @.str.36) #9
  tail call void @errfinish(ptr noundef nonnull @.str.1, i32 noundef 741, ptr noundef nonnull @__func__.pg_promote) #9
  unreachable

._crit_edge:                                      ; preds = %42, %.preheader
  %59 = tail call zeroext i1 @errstart(i32 noundef 19, ptr noundef null) #9
  br i1 %59, label %60, label %.loopexit

60:                                               ; preds = %._crit_edge
  %61 = and i64 %5, 2147483647
  %62 = tail call i32 (ptr, ptr, i64, ...) @errmsg_plural(ptr noundef nonnull @.str.37, ptr noundef nonnull @.str.38, i64 noundef %61, i32 noundef %6) #9
  tail call void @errfinish(ptr noundef nonnull @.str.1, i32 noundef 748, ptr noundef nonnull @__func__.pg_promote) #9
  br label %.loopexit

.loopexit:                                        ; preds = %.lr.ph, %._crit_edge, %60, %39
  %.0 = phi i64 [ 1, %39 ], [ 0, %60 ], [ 0, %._crit_edge ], [ 1, %.lr.ph ]
  ret i64 %.0
}